target datalayout = "e-m:e-p270:32:32-p271:32:32-p272:64:64-i64:64-i128:128-f80:128-n8:16:32:64-S128"
target triple = "x86_64-unknown-linux-gnu"

%"class.sat::literal" = type { i32 }
%class.approx_set_tpl = type { i32 }
%"class.sat::clause" = type { i32, i32, i32, %class.approx_set_tpl, i32, [0 x %"class.sat::literal"] }

; Function Attrs: mustprogress nounwind uwtable
define linkonce_odr hidden noundef zeroext i1 @_ZN3sateqERKNS_7literalES2_(ptr noundef nonnull align 4 dereferenceable(4) %l1, ptr noundef nonnull align 4 dereferenceable(4) %l2) #4 comdat {
entry:
  %l1.addr = alloca ptr, align 8
  %l2.addr = alloca ptr, align 8
  store ptr %l1, ptr %l1.addr, align 8
  store ptr %l2, ptr %l2.addr, align 8
  %0 = load ptr, ptr %l1.addr, align 8
  %m_val = getelementptr inbounds %"class.sat::literal", ptr %0, i32 0, i32 0
  %1 = load i32, ptr %m_val, align 4
  %2 = load ptr, ptr %l2.addr, align 8
  %m_val1 = getelementptr inbounds %"class.sat::literal", ptr %2, i32 0, i32 0
  %3 = load i32, ptr %m_val1, align 4
  %cmp = icmp eq i32 %1, %3
  ret i1 %cmp
}

; Function Attrs: mustprogress nounwind uwtable
define linkonce_odr hidden noundef ptr @_ZNK3sat6clause3endEv(ptr noundef nonnull align 4 dereferenceable(20) %this) #4 comdat align 2 {
entry:
  %this.addr = alloca ptr, align 8
  store ptr %this, ptr %this.addr, align 8
  %this1 = load ptr, ptr %this.addr, align 8
  %m_lits = getelementptr inbounds %"class.sat::clause", ptr %this1, i32 0, i32 5
  %arraydecay = getelementptr inbounds [0 x %"class.sat::literal"], ptr %m_lits, i64 0, i64 0
  %m_size = getelementptr inbounds %"class.sat::clause", ptr %this1, i32 0, i32 1
  %0 = load i32, ptr %m_size, align 4
  %idx.ext = zext i32 %0 to i64
  %add.ptr = getelementptr inbounds %"class.sat::literal", ptr %arraydecay, i64 %idx.ext
  ret ptr %add.ptr
}

; Function Attrs: mustprogress nounwind uwtable
define linkonce_odr hidden noundef ptr @_ZNK3sat6clause5beginEv(ptr noundef nonnull align 4 dereferenceable(20) %this) #4 comdat align 2 {
entry:
  %this.addr = alloca ptr, align 8
  store ptr %this, ptr %this.addr, align 8
  %this1 = load ptr, ptr %this.addr, align 8
  %m_lits = getelementptr inbounds %"class.sat::clause", ptr %this1, i32 0, i32 5
  %arraydecay = getelementptr inbounds [0 x %"class.sat::literal"], ptr %m_lits, i64 0, i64 0
  ret ptr %arraydecay
}

; Function Attrs: mustprogress nounwind uwtable
define linkonce_odr hidden noundef i32 @_ZNK3sat6clause4sizeEv(ptr noundef nonnull align 4 dereferenceable(20) %this) #4 comdat align 2 {
entry:
  %this.addr = alloca ptr, align 8
  store ptr %this, ptr %this.addr, align 8
  %this1 = load ptr, ptr %this.addr, align 8
  %m_size = getelementptr inbounds %"class.sat::clause", ptr %this1, i32 0, i32 1
  %0 = load i32, ptr %m_size, align 4
  ret i32 %0
}

; Function Attrs: mustprogress uwtable
define hidden noundef zeroext i1 @_ZNK3sat4drat5matchEjPKNS_7literalERKNS_6clauseE(ptr noundef nonnull align 8 dereferenceable(664) %this, i32 noundef %n, ptr noundef %lits, ptr noundef nonnull align 4 dereferenceable(20) %c) #5 align 2 {
entry:
  %retval = alloca i1, align 1
  %this.addr = alloca ptr, align 8
  %n.addr = alloca i32, align 4
  %lits.addr = alloca ptr, align 8
  %c.addr = alloca ptr, align 8
  %i = alloca i32, align 4
  %lit1 = alloca %"class.sat::literal", align 4
  %found = alloca i8, align 1
  %__range2 = alloca ptr, align 8
  %__begin2 = alloca ptr, align 8
  %__end2 = alloca ptr, align 8
  %lit2 = alloca %"class.sat::literal", align 4
  store ptr %this, ptr %this.addr, align 8
  store i32 %n, ptr %n.addr, align 4
  store ptr %lits, ptr %lits.addr, align 8
  store ptr %c, ptr %c.addr, align 8
  %0 = load i32, ptr %n.addr, align 4
  %1 = load ptr, ptr %c.addr, align 8
  %call = call noundef i32 @_ZNK3sat6clause4sizeEv(ptr noundef nonnull align 4 dereferenceable(20) %1)
  %cmp = icmp ne i32 %0, %call
  br i1 %cmp, label %if.then, label %if.end

if.then:                                          ; preds = %entry
  store i1 false, ptr %retval, align 1
  br label %return

if.end:                                           ; preds = %entry
  store i32 0, ptr %i, align 4
  br label %for.cond

for.cond:                                         ; preds = %for.inc13, %if.end
  %2 = load i32, ptr %i, align 4
  %3 = load i32, ptr %n.addr, align 4
  %cmp2 = icmp ult i32 %2, %3
  br i1 %cmp2, label %for.body, label %for.end14

for.body:                                         ; preds = %for.cond
  %4 = load ptr, ptr %lits.addr, align 8
  %5 = load i32, ptr %i, align 4
  %idxprom = zext i32 %5 to i64
  %arrayidx = getelementptr inbounds %"class.sat::literal", ptr %4, i64 %idxprom
  call void @llvm.memcpy.p0.p0.i64(ptr align 4 %lit1, ptr align 4 %arrayidx, i64 4, i1 false)
  store i8 0, ptr %found, align 1
  %6 = load ptr, ptr %c.addr, align 8
  store ptr %6, ptr %__range2, align 8
  %7 = load ptr, ptr %__range2, align 8
  %call3 = call noundef ptr @_ZNK3sat6clause5beginEv(ptr noundef nonnull align 4 dereferenceable(20) %7)
  store ptr %call3, ptr %__begin2, align 8
  %8 = load ptr, ptr %__range2, align 8
  %call4 = call noundef ptr @_ZNK3sat6clause3endEv(ptr noundef nonnull align 4 dereferenceable(20) %8)
  store ptr %call4, ptr %__end2, align 8
  br label %for.cond5

for.cond5:                                        ; preds = %for.inc, %for.body
  %9 = load ptr, ptr %__begin2, align 8
  %10 = load ptr, ptr %__end2, align 8
  %cmp6 = icmp ne ptr %9, %10
  br i1 %cmp6, label %for.body7, label %for.end

for.body7:                                        ; preds = %for.cond5
  %11 = load ptr, ptr %__begin2, align 8
  call void @llvm.memcpy.p0.p0.i64(ptr align 4 %lit2, ptr align 4 %11, i64 4, i1 false)
  %call8 = call noundef zeroext i1 @_ZN3sateqERKNS_7literalES2_(ptr noundef nonnull align 4 dereferenceable(4) %lit1, ptr noundef nonnull align 4 dereferenceable(4) %lit2)
  br i1 %call8, label %if.then9, label %if.end10

if.then9:                                         ; preds = %for.body7
  store i8 1, ptr %found, align 1
  br label %for.end

if.end10:                                         ; preds = %for.body7
  br label %for.inc

for.inc:                                          ; preds = %if.end10
  %12 = load ptr, ptr %__begin2, align 8
  %incdec.ptr = getelementptr inbounds %"class.sat::literal", ptr %12, i32 1
  store ptr %incdec.ptr, ptr %__begin2, align 8
  br label %for.cond5

for.end:                                          ; preds = %if.then9, %for.cond5
  %13 = load i8, ptr %found, align 1
  %tobool = trunc i8 %13 to i1
  br i1 %tobool, label %if.end12, label %if.then11

if.then11:                                        ; preds = %for.end
  store i1 false, ptr %retval, align 1
  br label %return

if.end12:                                         ; preds = %for.end
  br label %for.inc13

for.inc13:                                        ; preds = %if.end12
  %14 = load i32, ptr %i, align 4
  %inc = add i32 %14, 1
  store i32 %inc, ptr %i, align 4
  br label %for.cond, !llvm.loop !28

for.end14:                                        ; preds = %for.cond
  store i1 true, ptr %retval, align 1
  br label %return

return:                                           ; preds = %for.end14, %if.then11, %if.then
  %15 = load i1, ptr %retval, align 1
  ret i1 %15
}