; Function Attrs: mustprogress nofree norecurse nosync nounwind willreturn memory(read, inaccessiblemem: none) uwtable
define hidden noundef zeroext i1 @_ZNK3sat4drat5matchEjPKNS_7literalERKNS_6clauseE(ptr nocapture noundef nonnull readnone align 8 dereferenceable(664) %this, i32 noundef %n, ptr nocapture noundef readonly %lits, ptr noundef nonnull readonly align 4 dereferenceable(20) %c) local_unnamed_addr #8 align 2 {
entry:
  %m_size.i = getelementptr inbounds i8, ptr %c, i64 4
  %0 = load i32, ptr %m_size.i, align 4
  %cmp.not = icmp eq i32 %0, %n
  br i1 %cmp.not, label %for.cond.preheader, label %return

for.cond.preheader:                               ; preds = %entry
  %cmp213.not = icmp eq i32 %n, 0
  br i1 %cmp213.not, label %return, label %for.body.preheader

for.body.preheader:                               ; preds = %for.cond.preheader
  %m_lits.i.ptr = getelementptr inbounds i8, ptr %c, i64 20
  %idx.ext.i = zext i32 %n to i64
  %add.ptr.i.idx = shl nuw nsw i64 %idx.ext.i, 2
  %1 = getelementptr i8, ptr %c, i64 %add.ptr.i.idx
  %add.ptr.i.ptr = getelementptr i8, ptr %1, i64 20
  br label %for.body

for.body:                                         ; preds = %for.body.preheader, %for.inc13
  %indvars.iv = phi i64 [ 0, %for.body.preheader ], [ %indvars.iv.next, %for.inc13 ]
  %arrayidx = getelementptr inbounds %"class.sat::literal", ptr %lits, i64 %indvars.iv
  %2 = load i32, ptr %arrayidx, align 4
  br label %for.body7

for.cond5:                                        ; preds = %for.body7
  %incdec.ptr = getelementptr inbounds i8, ptr %__begin2.012, i64 4
  %cmp6.not.not = icmp eq ptr %incdec.ptr, %add.ptr.i.ptr
  br i1 %cmp6.not.not, label %return, label %for.body7

for.body7:                                        ; preds = %for.body, %for.cond5
  %__begin2.012 = phi ptr [ %m_lits.i.ptr, %for.body ], [ %incdec.ptr, %for.cond5 ]
  %3 = load i32, ptr %__begin2.012, align 4
  %cmp.i = icmp eq i32 %2, %3
  br i1 %cmp.i, label %for.inc13, label %for.cond5

for.inc13:                                        ; preds = %for.body7
  %indvars.iv.next = add nuw nsw i64 %indvars.iv, 1
  %exitcond.not = icmp eq i64 %indvars.iv.next, %idx.ext.i
  br i1 %exitcond.not, label %return, label %for.body, !llvm.loop !30

return:                                           ; preds = %for.inc13, %for.cond5, %for.cond.preheader, %entry
  %retval.0 = phi i1 [ false, %entry ], [ true, %for.cond.preheader ], [ false, %for.cond5 ], [ true, %for.inc13 ]
  ret i1 %retval.0
}